; ModuleID = '56/2112.c'
source_filename = "56/2112.c"
target datalayout = "e-m:e-p270:32:32-p271:32:32-p272:64:64-i64:64-f80:128-n8:16:32:64-S128"
target triple = "x86_64-pc-linux-gnu"

; Function Attrs: noinline nounwind uwtable
define dso_local i32 @main() #0 {
  %1 = alloca i32, align 4
  %2 = alloca [6 x i8], align 1
  %3 = alloca i8, align 1
  %4 = alloca i32, align 4
  %5 = alloca i32, align 4
  %6 = alloca i32, align 4
  store i32 0, i32* %1, align 4
  store i32 0, i32* %6, align 4
  br label %7

7:                                                ; preds = %16, %0
  %8 = load i32, i32* %6, align 4
  %9 = add nsw i32 %8, 1
  store i32 %9, i32* %6, align 4
  %10 = call i32 @getchar()
  %11 = trunc i32 %10 to i8
  %12 = load i32, i32* %6, align 4
  %13 = sub nsw i32 %12, 1
  %14 = sext i32 %13 to i64
  %15 = getelementptr inbounds [6 x i8], [6 x i8]* %2, i64 0, i64 %14
  store i8 %11, i8* %15, align 1
  br label %16

16:                                               ; preds = %7
  %17 = load i32, i32* %6, align 4
  %18 = sub nsw i32 %17, 1
  %19 = sext i32 %18 to i64
  %20 = getelementptr inbounds [6 x i8], [6 x i8]* %2, i64 0, i64 %19
  %21 = load i8, i8* %20, align 1
  %22 = sext i8 %21 to i32
  %23 = icmp ne i32 %22, 10
  br i1 %23, label %7, label %24

24:                                               ; preds = %16
  %25 = load i32, i32* %6, align 4
  %26 = add nsw i32 %25, -1
  store i32 %26, i32* %6, align 4
  store i32 0, i32* %4, align 4
  br label %27

27:                                               ; preds = %54, %24
  %28 = load i32, i32* %4, align 4
  %29 = load i32, i32* %6, align 4
  %30 = sdiv i32 %29, 2
  %31 = icmp slt i32 %28, %30
  br i1 %31, label %32, label %57

32:                                               ; preds = %27
  %33 = load i32, i32* %4, align 4
  %34 = sext i32 %33 to i64
  %35 = getelementptr inbounds [6 x i8], [6 x i8]* %2, i64 0, i64 %34
  %36 = load i8, i8* %35, align 1
  store i8 %36, i8* %3, align 1
  %37 = load i32, i32* %6, align 4
  %38 = sub nsw i32 %37, 1
  %39 = load i32, i32* %4, align 4
  %40 = sub nsw i32 %38, %39
  %41 = sext i32 %40 to i64
  %42 = getelementptr inbounds [6 x i8], [6 x i8]* %2, i64 0, i64 %41
  %43 = load i8, i8* %42, align 1
  %44 = load i32, i32* %4, align 4
  %45 = sext i32 %44 to i64
  %46 = getelementptr inbounds [6 x i8], [6 x i8]* %2, i64 0, i64 %45
  store i8 %43, i8* %46, align 1
  %47 = load i8, i8* %3, align 1
  %48 = load i32, i32* %6, align 4
  %49 = sub nsw i32 %48, 1
  %50 = load i32, i32* %4, align 4
  %51 = sub nsw i32 %49, %50
  %52 = sext i32 %51 to i64
  %53 = getelementptr inbounds [6 x i8], [6 x i8]* %2, i64 0, i64 %52
  store i8 %47, i8* %53, align 1
  br label %54

54:                                               ; preds = %32
  %55 = load i32, i32* %4, align 4
  %56 = add nsw i32 %55, 1
  store i32 %56, i32* %4, align 4
  br label %27

57:                                               ; preds = %27
  store i32 0, i32* %5, align 4
  br label %58

58:                                               ; preds = %69, %57
  %59 = load i32, i32* %5, align 4
  %60 = load i32, i32* %6, align 4
  %61 = icmp slt i32 %59, %60
  br i1 %61, label %62, label %72

62:                                               ; preds = %58
  %63 = load i32, i32* %5, align 4
  %64 = sext i32 %63 to i64
  %65 = getelementptr inbounds [6 x i8], [6 x i8]* %2, i64 0, i64 %64
  %66 = load i8, i8* %65, align 1
  %67 = sext i8 %66 to i32
  %68 = call i32 @putchar(i32 %67)
  br label %69

69:                                               ; preds = %62
  %70 = load i32, i32* %5, align 4
  %71 = add nsw i32 %70, 1
  store i32 %71, i32* %5, align 4
  br label %58

72:                                               ; preds = %58
  ret i32 0
}

declare dso_local i32 @getchar() #1

declare dso_local i32 @putchar(i32) #1


!llvm.module.flags = !{!0}
!llvm.ident = !{!1}

!0 = !{i32 1, !"wchar_size", i32 4}
!1 = !{!"clang version 10.0.0-4ubuntu1 "}
